; Function Attrs: mustprogress nounwind uwtable
define internal noundef zeroext i1 @_ZN4llvm20MCAsmParserExtension15HandleDirectiveIN12_GLOBAL__N_113WasmAsmParserETnMT_FbNS_9StringRefENS_5SMLocEEXadL_ZNS3_29ParseDirectiveSymbolAttributeES5_S6_EEEEbPS0_S5_S6_(ptr nocapture noundef readonly %0, ptr nocapture readonly %1, i64 %2, ptr nocapture readnone %3) #0 align 2 {
  %5 = alloca %"class.llvm::StringRef", align 8
  %6 = alloca %"class.llvm::Twine", align 8
  %7 = alloca %"class.llvm::Twine", align 8
  %8 = alloca %"class.llvm::Twine", align 8
  call void @llvm.lifetime.start.p0(i64 16, ptr nonnull %5)
  call void @llvm.lifetime.start.p0(i64 40, ptr nonnull %6)
  call void @llvm.lifetime.start.p0(i64 40, ptr nonnull %7)
  call void @llvm.lifetime.start.p0(i64 40, ptr nonnull %8)
  switch i64 %2, label %_ZN4llvm12StringSwitchINS_12MCSymbolAttrES1_E4CaseENS_13StringLiteralES1_.exit37.i [
    i64 5, label %_ZN4llvmeqENS_9StringRefES0_.exit.i.i
    i64 6, label %_ZN4llvmeqENS_9StringRefES0_.exit.i10.i
    i64 7, label %_ZN4llvmeqENS_9StringRefES0_.exit.i18.i
    i64 9, label %_ZN4llvmeqENS_9StringRefES0_.exit.i26.i
    i64 10, label %_ZN4llvmeqENS_9StringRefES0_.exit.i34.i
  ]

_ZN4llvmeqENS_9StringRefES0_.exit.i.i:            ; preds = %4
  %bcmp.i.i.i = tail call i32 @bcmp(ptr noundef nonnull readonly dereferenceable(5) %1, ptr noundef nonnull dereferenceable(5) @.str.6, i64 5)
  %9 = icmp eq i32 %bcmp.i.i.i, 0
  br i1 %9, label %_ZN4llvm12StringSwitchINS_12MCSymbolAttrES1_E4CaseENS_13StringLiteralES1_.exit37.i, label %.thread40.i

_ZN4llvmeqENS_9StringRefES0_.exit.i10.i:          ; preds = %4
  %bcmp.i.i11.i = tail call i32 @bcmp(ptr noundef nonnull readonly dereferenceable(6) %1, ptr noundef nonnull dereferenceable(6) @.str.7, i64 6)
  %10 = icmp eq i32 %bcmp.i.i11.i, 0
  br i1 %10, label %_ZN4llvm12StringSwitchINS_12MCSymbolAttrES1_E4CaseENS_13StringLiteralES1_.exit37.i, label %.thread40.i

_ZN4llvmeqENS_9StringRefES0_.exit.i18.i:          ; preds = %4
  %bcmp.i.i19.i = tail call i32 @bcmp(ptr noundef nonnull readonly dereferenceable(7) %1, ptr noundef nonnull dereferenceable(7) @.str.9, i64 7)
  %11 = icmp eq i32 %bcmp.i.i19.i, 0
  br i1 %11, label %_ZN4llvm12StringSwitchINS_12MCSymbolAttrES1_E4CaseENS_13StringLiteralES1_.exit37.i, label %.thread40.i

_ZN4llvmeqENS_9StringRefES0_.exit.i26.i:          ; preds = %4
  %bcmp.i.i27.i = tail call i32 @bcmp(ptr noundef nonnull readonly dereferenceable(9) %1, ptr noundef nonnull dereferenceable(9) @.str.8, i64 9)
  %12 = icmp eq i32 %bcmp.i.i27.i, 0
  br i1 %12, label %_ZN4llvm12StringSwitchINS_12MCSymbolAttrES1_E4CaseENS_13StringLiteralES1_.exit37.i, label %.thread40.i

.thread40.i:                                      ; preds = %_ZN4llvmeqENS_9StringRefES0_.exit.i26.i, %_ZN4llvmeqENS_9StringRefES0_.exit.i18.i, %_ZN4llvmeqENS_9StringRefES0_.exit.i10.i, %_ZN4llvmeqENS_9StringRefES0_.exit.i.i
  br label %_ZN4llvm12StringSwitchINS_12MCSymbolAttrES1_E4CaseENS_13StringLiteralES1_.exit37.i

_ZN4llvmeqENS_9StringRefES0_.exit.i34.i:          ; preds = %4
  %bcmp.i.i35.i = tail call i32 @bcmp(ptr noundef nonnull readonly dereferenceable(10) %1, ptr noundef nonnull dereferenceable(10) @.str.43, i64 10)
  %13 = icmp eq i32 %bcmp.i.i35.i, 0
  %14 = select i1 %13, i32 22, i32 0
  br label %_ZN4llvm12StringSwitchINS_12MCSymbolAttrES1_E4CaseENS_13StringLiteralES1_.exit37.i

_ZN4llvm12StringSwitchINS_12MCSymbolAttrES1_E4CaseENS_13StringLiteralES1_.exit37.i: ; preds = %_ZN4llvmeqENS_9StringRefES0_.exit.i34.i, %.thread40.i, %_ZN4llvmeqENS_9StringRefES0_.exit.i26.i, %_ZN4llvmeqENS_9StringRefES0_.exit.i18.i, %_ZN4llvmeqENS_9StringRefES0_.exit.i10.i, %_ZN4llvmeqENS_9StringRefES0_.exit.i.i, %4
  %.sroa.18.4.i = phi i32 [ 0, %.thread40.i ], [ 24, %_ZN4llvmeqENS_9StringRefES0_.exit.i.i ], [ 17, %_ZN4llvmeqENS_9StringRefES0_.exit.i10.i ], [ 12, %_ZN4llvmeqENS_9StringRefES0_.exit.i18.i ], [ 15, %_ZN4llvmeqENS_9StringRefES0_.exit.i26.i ], [ 0, %4 ], [ %14, %_ZN4llvmeqENS_9StringRefES0_.exit.i34.i ]
  %15 = getelementptr inbounds nuw i8, ptr %0, i64 8
  %16 = load ptr, ptr %15, align 8
  %17 = load ptr, ptr %16, align 8
  %18 = getelementptr inbounds i8, ptr %17, i64 40
  %19 = load ptr, ptr %18, align 8
  %20 = tail call noundef nonnull align 8 dereferenceable(144) ptr %19(ptr noundef nonnull align 8 dereferenceable(34) %16) #13
  %21 = getelementptr inbounds nuw i8, ptr %20, i64 8
  %22 = load ptr, ptr %21, align 8
  %23 = load i32, ptr %22, align 8
  %.not.i = icmp eq i32 %23, 9
  br i1 %.not.i, label %.loopexit.i, label %.preheader.i

.preheader.i:                                     ; preds = %_ZN4llvm12StringSwitchINS_12MCSymbolAttrES1_E4CaseENS_13StringLiteralES1_.exit37.i
  call void @llvm.memset.p0.i64(ptr noundef nonnull align 8 dereferenceable(16) %5, i8 0, i64 16, i1 false)
  %24 = load ptr, ptr %15, align 8
  %25 = load ptr, ptr %24, align 8
  %26 = getelementptr inbounds i8, ptr %25, i64 192
  %27 = load ptr, ptr %26, align 8
  %28 = call noundef zeroext i1 %27(ptr noundef nonnull align 8 dereferenceable(34) %24, ptr noundef nonnull align 8 dereferenceable(16) %5) #13
  br i1 %28, label %._crit_edge.i, label %.lr.ph.i

.lr.ph.i:                                         ; preds = %.preheader.i
  %29 = getelementptr inbounds nuw i8, ptr %7, i64 32
  %30 = getelementptr inbounds nuw i8, ptr %7, i64 33
  %31 = getelementptr inbounds nuw i8, ptr %5, i64 8
  %32 = getelementptr inbounds nuw i8, ptr %7, i64 8
  br label %37

._crit_edge.i:                                    ; preds = %78, %.preheader.i
  %33 = getelementptr inbounds nuw i8, ptr %6, i64 32
  %34 = getelementptr inbounds nuw i8, ptr %6, i64 33
  store i8 1, ptr %34, align 1
  store ptr @.str.10, ptr %6, align 8
  store i8 3, ptr %33, align 8
  %35 = load ptr, ptr %15, align 8
  %36 = call noundef zeroext i1 @_ZN4llvm11MCAsmParser8TokErrorERKNS_5TwineENS_7SMRangeE(ptr noundef nonnull align 8 dereferenceable(34) %35, ptr noundef nonnull align 8 dereferenceable(34) %6, ptr null, ptr null) #13
  br label %_ZN12_GLOBAL__N_113WasmAsmParser29ParseDirectiveSymbolAttributeEN4llvm9StringRefENS1_5SMLocE.exit

37:                                               ; preds = %78, %.lr.ph.i
  %38 = load ptr, ptr %15, align 8
  %39 = load ptr, ptr %38, align 8
  %40 = getelementptr inbounds i8, ptr %39, i64 48
  %41 = load ptr, ptr %40, align 8
  %42 = call noundef nonnull align 8 dereferenceable(2432) ptr %41(ptr noundef nonnull align 8 dereferenceable(34) %38) #13
  store i8 5, ptr %29, align 8
  store i8 1, ptr %30, align 1
  %43 = load ptr, ptr %5, align 8
  store ptr %43, ptr %7, align 8
  %44 = load i64, ptr %31, align 8
  store i64 %44, ptr %32, align 8
  %45 = call noundef ptr @_ZN4llvm9MCContext17getOrCreateSymbolERKNS_5TwineE(ptr noundef nonnull align 8 dereferenceable(2432) %42, ptr noundef nonnull align 8 dereferenceable(34) %7) #13
  %46 = load ptr, ptr %15, align 8
  %47 = load ptr, ptr %46, align 8
  %48 = getelementptr inbounds i8, ptr %47, i64 56
  %49 = load ptr, ptr %48, align 8
  %50 = call noundef nonnull align 8 dereferenceable(288) ptr %49(ptr noundef nonnull align 8 dereferenceable(34) %46) #13
  %51 = load ptr, ptr %50, align 8
  %52 = getelementptr inbounds i8, ptr %51, i64 296
  %53 = load ptr, ptr %52, align 8
  %54 = call noundef zeroext i1 %53(ptr noundef nonnull align 8 dereferenceable(288) %50, ptr noundef %45, i32 noundef %.sroa.18.4.i) #13
  %55 = load ptr, ptr %15, align 8
  %56 = load ptr, ptr %55, align 8
  %57 = getelementptr inbounds i8, ptr %56, i64 40
  %58 = load ptr, ptr %57, align 8
  %59 = call noundef nonnull align 8 dereferenceable(144) ptr %58(ptr noundef nonnull align 8 dereferenceable(34) %55) #13
  %60 = getelementptr inbounds nuw i8, ptr %59, i64 8
  %61 = load ptr, ptr %60, align 8
  %62 = load i32, ptr %61, align 8
  %63 = icmp eq i32 %62, 9
  br i1 %63, label %.loopexit.i, label %64

64:                                               ; preds = %37
  %65 = load ptr, ptr %15, align 8
  %66 = load ptr, ptr %65, align 8
  %67 = getelementptr inbounds i8, ptr %66, i64 40
  %68 = load ptr, ptr %67, align 8
  %69 = call noundef nonnull align 8 dereferenceable(144) ptr %68(ptr noundef nonnull align 8 dereferenceable(34) %65) #13
  %70 = getelementptr inbounds nuw i8, ptr %69, i64 8
  %71 = load ptr, ptr %70, align 8
  %72 = load i32, ptr %71, align 8
  %.not45.i = icmp eq i32 %72, 26
  br i1 %.not45.i, label %78, label %73

73:                                               ; preds = %64
  %74 = getelementptr inbounds nuw i8, ptr %8, i64 32
  %75 = getelementptr inbounds nuw i8, ptr %8, i64 33
  store i8 1, ptr %75, align 1
  store ptr @.str.44, ptr %8, align 8
  store i8 3, ptr %74, align 8
  %76 = load ptr, ptr %15, align 8
  %77 = call noundef zeroext i1 @_ZN4llvm11MCAsmParser8TokErrorERKNS_5TwineENS_7SMRangeE(ptr noundef nonnull align 8 dereferenceable(34) %76, ptr noundef nonnull align 8 dereferenceable(34) %8, ptr null, ptr null) #13
  br label %_ZN12_GLOBAL__N_113WasmAsmParser29ParseDirectiveSymbolAttributeEN4llvm9StringRefENS1_5SMLocE.exit

78:                                               ; preds = %64
  %79 = load ptr, ptr %15, align 8
  %80 = load ptr, ptr %79, align 8
  %81 = getelementptr inbounds i8, ptr %80, i64 184
  %82 = load ptr, ptr %81, align 8
  %83 = call noundef nonnull align 8 dereferenceable(40) ptr %82(ptr noundef nonnull align 8 dereferenceable(34) %79) #13
  call void @llvm.memset.p0.i64(ptr noundef nonnull align 8 dereferenceable(16) %5, i8 0, i64 16, i1 false)
  %84 = load ptr, ptr %15, align 8
  %85 = load ptr, ptr %84, align 8
  %86 = getelementptr inbounds i8, ptr %85, i64 192
  %87 = load ptr, ptr %86, align 8
  %88 = call noundef zeroext i1 %87(ptr noundef nonnull align 8 dereferenceable(34) %84, ptr noundef nonnull align 8 dereferenceable(16) %5) #13
  br i1 %88, label %._crit_edge.i, label %37, !llvm.loop !43

.loopexit.i:                                      ; preds = %37, %_ZN4llvm12StringSwitchINS_12MCSymbolAttrES1_E4CaseENS_13StringLiteralES1_.exit37.i
  %89 = load ptr, ptr %15, align 8
  %90 = load ptr, ptr %89, align 8
  %91 = getelementptr inbounds i8, ptr %90, i64 184
  %92 = load ptr, ptr %91, align 8
  %93 = call noundef nonnull align 8 dereferenceable(40) ptr %92(ptr noundef nonnull align 8 dereferenceable(34) %89) #13
  br label %_ZN12_GLOBAL__N_113WasmAsmParser29ParseDirectiveSymbolAttributeEN4llvm9StringRefENS1_5SMLocE.exit

_ZN12_GLOBAL__N_113WasmAsmParser29ParseDirectiveSymbolAttributeEN4llvm9StringRefENS1_5SMLocE.exit: ; preds = %._crit_edge.i, %73, %.loopexit.i
  %.0.i = phi i1 [ %36, %._crit_edge.i ], [ false, %.loopexit.i ], [ %77, %73 ]
  call void @llvm.lifetime.end.p0(i64 16, ptr nonnull %5)
  call void @llvm.lifetime.end.p0(i64 40, ptr nonnull %6)
  call void @llvm.lifetime.end.p0(i64 40, ptr nonnull %7)
  call void @llvm.lifetime.end.p0(i64 40, ptr nonnull %8)
  ret i1 %.0.i
}